; Function Attrs: inlinehint nounwind uwtable
define internal void @sbc_analyze_4b_4s_simd(ptr noundef readonly captures(none) %0, ptr noundef %1, ptr noundef %2, i32 noundef %3) #2 {
  %5 = getelementptr inbounds nuw i8, ptr %0, i64 1328
  %6 = load ptr, ptr %5, align 16, !tbaa !4
  %7 = getelementptr inbounds nuw i8, ptr %1, i64 24
  tail call void %6(ptr noundef nonnull %7, ptr noundef %2, ptr noundef nonnull @sbcdsp_analysis_consts_fixed4_simd_odd) #7
  %8 = sext i32 %3 to i64
  %9 = getelementptr inbounds i32, ptr %2, i64 %8
  %10 = load ptr, ptr %5, align 16, !tbaa !4
  %11 = getelementptr inbounds nuw i8, ptr %1, i64 16
  tail call void %10(ptr noundef nonnull %11, ptr noundef %9, ptr noundef nonnull @sbcdsp_analysis_consts_fixed4_simd_even) #7
  %12 = getelementptr inbounds i32, ptr %9, i64 %8
  %13 = load ptr, ptr %5, align 16, !tbaa !4
  %14 = getelementptr inbounds nuw i8, ptr %1, i64 8
  tail call void %13(ptr noundef nonnull %14, ptr noundef %12, ptr noundef nonnull @sbcdsp_analysis_consts_fixed4_simd_odd) #7
  %15 = getelementptr inbounds i32, ptr %12, i64 %8
  %16 = load ptr, ptr %5, align 16, !tbaa !4
  tail call void %16(ptr noundef %1, ptr noundef %15, ptr noundef nonnull @sbcdsp_analysis_consts_fixed4_simd_even) #7
  ret void
}